(lp0
cnumpy.core.multiarray
scalar
p1
(cnumpy
dtype
p2
(S'f8'
p3
I0
I1
tp4
Rp5
(I3
S'<'
p6
NNNI-1
I-1
I0
tp7
bS'T\xa7\x9c\xa0\x94$\xbd?'
p8
tp9
Rp10
ag10
ag1
(g5
S'T\xa7\x9c\xa0\x94$\xbd?'
p11
tp12
Rp13
ag1
(g5
S'z$\x90;Di\xb8?'
p14
tp15
Rp16
ag1
(g5
S'z$\x90;Di\xb8?'
p17
tp18
Rp19
ag1
(g5
S'z$\x90;Di\xb8?'
p20
tp21
Rp22
ag1
(g5
S'z$\x90;Di\xb8?'
p23
tp24
Rp25
ag1
(g5
S'z$\x90;Di\xb8?'
p26
tp27
Rp28
ag1
(g5
S'!*\xeel\xe3?\xb7?'
p29
tp30
Rp31
ag1
(g5
S'\x14p\xf1\xcb@\x8c\xb6?'
p32
tp33
Rp34
ag1
(g5
S'}\x1c\x0b$\xe8\x00\xb6?'
p35
tp36
Rp37
a.