(lp0
cnumpy.core.multiarray
scalar
p1
(cnumpy
dtype
p2
(S'f8'
p3
I0
I1
tp4
Rp5
(I3
S'<'
p6
NNNI-1
I-1
I0
tp7
bS'Jx\xe2\xd1X\x9d\xd6?'
p8
tp9
Rp10
ag1
(g5
S'YAy\x80$i\xd5?'
p11
tp12
Rp13
ag1
(g5
S'YAy\x80$i\xd5?'
p14
tp15
Rp16
ag1
(g5
S'YAy\x80$i\xd5?'
p17
tp18
Rp19
ag1
(g5
S'YAy\x80$i\xd5?'
p20
tp21
Rp22
ag1
(g5
S'YAy\x80$i\xd5?'
p23
tp24
Rp25
ag1
(g5
S'YAy\x80$i\xd5?'
p26
tp27
Rp28
ag1
(g5
S'YAy\x80$i\xd5?'
p29
tp30
Rp31
ag1
(g5
S'YAy\x80$i\xd5?'
p32
tp33
Rp34
ag1
(g5
S'YAy\x80$i\xd5?'
p35
tp36
Rp37
ag1
(g5
S'\xda\x97.\xe1jN\xd5?'
p38
tp39
Rp40
a.