(lp0
cnumpy.core.multiarray
scalar
p1
(cnumpy
dtype
p2
(S'f8'
p3
I0
I1
tp4
Rp5
(I3
S'<'
p6
NNNI-1
I-1
I0
tp7
bS'\x9a\x1a\xc1/a\xe5\xa1?'
p8
tp9
Rp10
ag10
ag1
(g5
S'\xfdgD\x15Nr\xa1?'
p11
tp12
Rp13
ag13
ag13
ag13
ag13
ag13
ag13
ag13
ag13
ag13
ag13
ag13
ag13
ag1
(g5
S'\x04\xedI\x8c\xe3\x82\xa1?'
p14
tp15
Rp16
a.